ARM GAS  C:\Users\JANUSD~1\AppData\Local\Temp\ccEwIFdT.s 			page 1


   1              		.syntax unified
   2              		.cpu cortex-m0
   3              		.fpu softvfp
   4              		.eabi_attribute 20, 1
   5              		.eabi_attribute 21, 1
   6              		.eabi_attribute 23, 3
   7              		.eabi_attribute 24, 1
   8              		.eabi_attribute 25, 1
   9              		.eabi_attribute 26, 1
  10              		.eabi_attribute 30, 1
  11              		.eabi_attribute 34, 0
  12              		.eabi_attribute 18, 4
  13              		.thumb
  14              		.syntax unified
  15              		.file	"main.c"
  16              		.text
  17              	.Ltext0:
  18              		.cfi_sections	.debug_frame
  19              		.section	.text.isr_100Hz,"ax",%progbits
  20              		.align	2
  21              		.global	isr_100Hz
  22              		.code	16
  23              		.thumb_func
  24              		.type	isr_100Hz, %function
  25              	isr_100Hz:
  26              	.LFB39:
  27              		.file 1 "main.c"
   1:main.c        **** #include "project.h"
   2:main.c        **** #include "stdio.h"
   3:main.c        **** 
   4:main.c        **** #define STR_LEN     (80u)
   5:main.c        **** #define CHANNEL_0   (0u)
   6:main.c        **** 
   7:main.c        **** void out7seg(uint16);
   8:main.c        **** 
   9:main.c        **** uint16 indyk[4]         = {0x10FF,0x20FF,0x40FF,0x80FF};
  10:main.c        **** const uint8 KOD7[10]    = {0x03,0x9F,0x25,0x0D,0x99,0x49,0x41,0x1F,0x01,0x09};
  11:main.c        **** 
  12:main.c        **** void out7seg(uint16 data);
  13:main.c        **** CY_ISR_PROTO(isr_100Hz);
  14:main.c        **** 
  15:main.c        **** uint16 temperature;
  16:main.c        **** 
  17:main.c        **** 
  18:main.c        **** uint16_t My_CountsTo_mVolts(int channel, uint16 adcResult){
  19:main.c        ****     uint16 adcResult_mV = adcResult;
  20:main.c        ****     adcResult_mV = adcResult - ADC_SAR_Seq_offset[channel];
  21:main.c        ****     adcResult_mV = adcResult_mV * (ADC_SAR_Seq_10MV_COUNTS/ADC_SAR_Seq_countsPer10Volt[channel]);
  22:main.c        ****     
  23:main.c        ****     return adcResult_mV;
  24:main.c        **** }
  25:main.c        **** 
  26:main.c        **** int main(void)
  27:main.c        **** {
  28:main.c        ****     char str[STR_LEN];
  29:main.c        ****     uint16 adcResult;
  30:main.c        ****     float adcResult_V;
ARM GAS  C:\Users\JANUSD~1\AppData\Local\Temp\ccEwIFdT.s 			page 2


  31:main.c        ****     int16 adcResult_mV;
  32:main.c        ****     int32 adcResult_uV;
  33:main.c        ****     uint16 my_adcResult_mV;
  34:main.c        ****     
  35:main.c        ****     CyGlobalIntEnable; /* Enable global interrupts. */
  36:main.c        **** 
  37:main.c        ****     SPIM_Start();
  38:main.c        ****     isr_100Hz_StartEx(isr_100Hz);
  39:main.c        ****     
  40:main.c        ****     ADC_SAR_Seq_Start();
  41:main.c        ****     UART_Start();
  42:main.c        ****     UART_UartPutString("Init stage is done \r\n");
  43:main.c        **** 
  44:main.c        ****     UART_UartPutString("Starting ADC (FreeRunning mode only) \r\n"); 
  45:main.c        ****     ADC_SAR_Seq_StartConvert();
  46:main.c        ****     
  47:main.c        ****     for(;;)
  48:main.c        ****     {
  49:main.c        ****         CyDelay(1000u);
  50:main.c        ****         ADC_SAR_Seq_IsEndConversion(ADC_SAR_Seq_WAIT_FOR_RESULT);
  51:main.c        ****         
  52:main.c        ****         adcResult = ADC_SAR_Seq_GetResult16(CHANNEL_0);
  53:main.c        ****         adcResult_V = ADC_SAR_Seq_CountsTo_Volts(CHANNEL_0, adcResult);
  54:main.c        ****         adcResult_mV = ADC_SAR_Seq_CountsTo_mVolts(CHANNEL_0, adcResult);
  55:main.c        ****         adcResult_uV = ADC_SAR_Seq_CountsTo_uVolts(CHANNEL_0, adcResult);
  56:main.c        ****         
  57:main.c        ****         temperature = adcResult_mV / 10; // 10 mV per C
  58:main.c        ****         out7seg(temperature);
  59:main.c        ****         
  60:main.c        ****         CyDelay(1000u);
  61:main.c        ****         my_adcResult_mV = My_CountsTo_mVolts(CHANNEL_0, adcResult);
  62:main.c        ****         temperature = adcResult_mV / 10; // 10 mV per C
  63:main.c        ****         out7seg(temperature);
  64:main.c        ****         
  65:main.c        ****         /* Send data through UART
  66:main.c        ****         sprintf(str, "n = 0x%04x; V = %dmV  T = %d C  \r\n", (unsigned short)adcResult, adcResult_m
  67:main.c        ****         UART_UartPutString(str); */
  68:main.c        ****     }
  69:main.c        **** }
  70:main.c        **** 
  71:main.c        **** 
  72:main.c        **** void out7seg(uint16 data)
  73:main.c        **** {
  74:main.c        ****     uint8 i;
  75:main.c        ****     
  76:main.c        ****     for (i = 0; i < 4; i++)
  77:main.c        ****     {
  78:main.c        ****         indyk[i] &= 0xFF00;
  79:main.c        ****         indyk[i] |= (uint16)KOD7[data % 10];
  80:main.c        ****         data /= 10;
  81:main.c        ****         if (data == 0) break;
  82:main.c        ****     }
  83:main.c        ****     
  84:main.c        ****     for (i++; i < 4; i++)
  85:main.c        ****     {
  86:main.c        ****         indyk[i] |= 0x00FF;
  87:main.c        ****     }
ARM GAS  C:\Users\JANUSD~1\AppData\Local\Temp\ccEwIFdT.s 			page 3


  88:main.c        **** }
  89:main.c        **** 
  90:main.c        **** CY_ISR(isr_100Hz)
  91:main.c        **** {
  28              		.loc 1 91 0
  29              		.cfi_startproc
  30              		@ args = 0, pretend = 0, frame = 0
  31              		@ frame_needed = 0, uses_anonymous_args = 0
  32 0000 10B5     		push	{r4, lr}
  33              		.cfi_def_cfa_offset 8
  34              		.cfi_offset 4, -8
  35              		.cfi_offset 14, -4
  92:main.c        ****     static uint8 N_indyk = 0u;
  93:main.c        ****     
  94:main.c        ****     SPIM_WriteTxData(indyk[N_indyk]);
  36              		.loc 1 94 0
  37 0002 064C     		ldr	r4, .L2
  38 0004 2378     		ldrb	r3, [r4]
  39 0006 5B00     		lsls	r3, r3, #1
  40 0008 054A     		ldr	r2, .L2+4
  41 000a 985A     		ldrh	r0, [r3, r2]
  42 000c FFF7FEFF 		bl	SPIM_WriteTxData
  43              	.LVL0:
  95:main.c        ****     
  96:main.c        ****     N_indyk++;
  44              		.loc 1 96 0
  45 0010 2378     		ldrb	r3, [r4]
  46 0012 0133     		adds	r3, r3, #1
  97:main.c        ****     N_indyk &= 3;    
  47              		.loc 1 97 0
  48 0014 0322     		movs	r2, #3
  49 0016 1340     		ands	r3, r2
  50 0018 2370     		strb	r3, [r4]
  98:main.c        **** }
  51              		.loc 1 98 0
  52              		@ sp needed
  53 001a 10BD     		pop	{r4, pc}
  54              	.L3:
  55              		.align	2
  56              	.L2:
  57 001c 00000000 		.word	.LANCHOR1
  58 0020 00000000 		.word	.LANCHOR0
  59              		.cfi_endproc
  60              	.LFE39:
  61              		.size	isr_100Hz, .-isr_100Hz
  62              		.global	__aeabi_idiv
  63              		.section	.text.My_CountsTo_mVolts,"ax",%progbits
  64              		.align	2
  65              		.global	My_CountsTo_mVolts
  66              		.code	16
  67              		.thumb_func
  68              		.type	My_CountsTo_mVolts, %function
  69              	My_CountsTo_mVolts:
  70              	.LFB36:
  18:main.c        ****     uint16 adcResult_mV = adcResult;
  71              		.loc 1 18 0
  72              		.cfi_startproc
ARM GAS  C:\Users\JANUSD~1\AppData\Local\Temp\ccEwIFdT.s 			page 4


  73              		@ args = 0, pretend = 0, frame = 0
  74              		@ frame_needed = 0, uses_anonymous_args = 0
  75              	.LVL1:
  76 0000 10B5     		push	{r4, lr}
  77              		.cfi_def_cfa_offset 8
  78              		.cfi_offset 4, -8
  79              		.cfi_offset 14, -4
  80              	.LVL2:
  20:main.c        ****     adcResult_mV = adcResult_mV * (ADC_SAR_Seq_10MV_COUNTS/ADC_SAR_Seq_countsPer10Volt[channel]);
  81              		.loc 1 20 0
  82 0002 4200     		lsls	r2, r0, #1
  83 0004 064B     		ldr	r3, .L5
  84 0006 D45A     		ldrh	r4, [r2, r3]
  85 0008 24B2     		sxth	r4, r4
  86 000a 0C1B     		subs	r4, r1, r4
  87 000c A4B2     		uxth	r4, r4
  88              	.LVL3:
  21:main.c        ****     
  89              		.loc 1 21 0
  90 000e 8000     		lsls	r0, r0, #2
  91              	.LVL4:
  92 0010 044B     		ldr	r3, .L5+4
  93 0012 C158     		ldr	r1, [r0, r3]
  94              	.LVL5:
  95 0014 0448     		ldr	r0, .L5+8
  96 0016 FFF7FEFF 		bl	__aeabi_idiv
  97              	.LVL6:
  98 001a 6043     		muls	r0, r4
  99 001c 80B2     		uxth	r0, r0
 100              	.LVL7:
  24:main.c        **** 
 101              		.loc 1 24 0
 102              		@ sp needed
 103 001e 10BD     		pop	{r4, pc}
 104              	.L6:
 105              		.align	2
 106              	.L5:
 107 0020 00000000 		.word	ADC_SAR_Seq_offset
 108 0024 00000000 		.word	ADC_SAR_Seq_countsPer10Volt
 109 0028 10270000 		.word	10000
 110              		.cfi_endproc
 111              	.LFE36:
 112              		.size	My_CountsTo_mVolts, .-My_CountsTo_mVolts
 113              		.global	__aeabi_uidivmod
 114              		.global	__aeabi_uidiv
 115              		.section	.text.out7seg,"ax",%progbits
 116              		.align	2
 117              		.global	out7seg
 118              		.code	16
 119              		.thumb_func
 120              		.type	out7seg, %function
 121              	out7seg:
 122              	.LFB38:
  73:main.c        ****     uint8 i;
 123              		.loc 1 73 0
 124              		.cfi_startproc
 125              		@ args = 0, pretend = 0, frame = 0
ARM GAS  C:\Users\JANUSD~1\AppData\Local\Temp\ccEwIFdT.s 			page 5


 126              		@ frame_needed = 0, uses_anonymous_args = 0
 127              	.LVL8:
 128 0000 F0B5     		push	{r4, r5, r6, r7, lr}
 129              		.cfi_def_cfa_offset 20
 130              		.cfi_offset 4, -20
 131              		.cfi_offset 5, -16
 132              		.cfi_offset 6, -12
 133              		.cfi_offset 7, -8
 134              		.cfi_offset 14, -4
 135 0002 4746     		mov	r7, r8
 136 0004 80B4     		push	{r7}
 137              		.cfi_def_cfa_offset 24
 138              		.cfi_offset 8, -24
 139 0006 0500     		movs	r5, r0
 140              	.LVL9:
  76:main.c        ****     {
 141              		.loc 1 76 0
 142 0008 0024     		movs	r4, #0
 143 000a 1AE0     		b	.L8
 144              	.LVL10:
 145              	.L10:
  78:main.c        ****         indyk[i] |= (uint16)KOD7[data % 10];
 146              		.loc 1 78 0
 147 000c 164F     		ldr	r7, .L13
 148 000e 6300     		lsls	r3, r4, #1
 149 0010 9846     		mov	r8, r3
 150 0012 DE5B     		ldrh	r6, [r3, r7]
 151 0014 FF23     		movs	r3, #255
 152 0016 9E43     		bics	r6, r3
 153 0018 4346     		mov	r3, r8
 154 001a DE53     		strh	r6, [r3, r7]
  79:main.c        ****         data /= 10;
 155              		.loc 1 79 0
 156 001c 0A21     		movs	r1, #10
 157 001e 2800     		movs	r0, r5
 158 0020 FFF7FEFF 		bl	__aeabi_uidivmod
 159              	.LVL11:
 160 0024 89B2     		uxth	r1, r1
 161 0026 114B     		ldr	r3, .L13+4
 162 0028 5B5C     		ldrb	r3, [r3, r1]
 163 002a 1E43     		orrs	r6, r3
 164 002c 4346     		mov	r3, r8
 165 002e DE53     		strh	r6, [r3, r7]
  80:main.c        ****         if (data == 0) break;
 166              		.loc 1 80 0
 167 0030 0A21     		movs	r1, #10
 168 0032 2800     		movs	r0, r5
 169 0034 FFF7FEFF 		bl	__aeabi_uidiv
 170              	.LVL12:
 171 0038 85B2     		uxth	r5, r0
 172              	.LVL13:
  81:main.c        ****     }
 173              		.loc 1 81 0
 174 003a 002D     		cmp	r5, #0
 175 003c 03D0     		beq	.L9
  76:main.c        ****     {
 176              		.loc 1 76 0 discriminator 2
ARM GAS  C:\Users\JANUSD~1\AppData\Local\Temp\ccEwIFdT.s 			page 6


 177 003e 0134     		adds	r4, r4, #1
 178              	.LVL14:
 179 0040 E4B2     		uxtb	r4, r4
 180              	.LVL15:
 181              	.L8:
  76:main.c        ****     {
 182              		.loc 1 76 0 is_stmt 0 discriminator 1
 183 0042 032C     		cmp	r4, #3
 184 0044 E2D9     		bls	.L10
 185              	.L9:
  84:main.c        ****     {
 186              		.loc 1 84 0 is_stmt 1
 187 0046 0134     		adds	r4, r4, #1
 188              	.LVL16:
 189 0048 E3B2     		uxtb	r3, r4
 190              	.LVL17:
 191 004a 07E0     		b	.L11
 192              	.L12:
  86:main.c        ****     }
 193              		.loc 1 86 0 discriminator 3
 194 004c 0649     		ldr	r1, .L13
 195 004e 5800     		lsls	r0, r3, #1
 196 0050 445A     		ldrh	r4, [r0, r1]
 197 0052 FF22     		movs	r2, #255
 198 0054 2243     		orrs	r2, r4
 199 0056 4252     		strh	r2, [r0, r1]
  84:main.c        ****     {
 200              		.loc 1 84 0 discriminator 3
 201 0058 0133     		adds	r3, r3, #1
 202              	.LVL18:
 203 005a DBB2     		uxtb	r3, r3
 204              	.LVL19:
 205              	.L11:
  84:main.c        ****     {
 206              		.loc 1 84 0 is_stmt 0 discriminator 1
 207 005c 032B     		cmp	r3, #3
 208 005e F5D9     		bls	.L12
  88:main.c        **** 
 209              		.loc 1 88 0 is_stmt 1
 210              		@ sp needed
 211              	.LVL20:
 212 0060 04BC     		pop	{r2}
 213 0062 9046     		mov	r8, r2
 214 0064 F0BD     		pop	{r4, r5, r6, r7, pc}
 215              	.L14:
 216 0066 C046     		.align	2
 217              	.L13:
 218 0068 00000000 		.word	.LANCHOR0
 219 006c 00000000 		.word	.LANCHOR2
 220              		.cfi_endproc
 221              	.LFE38:
 222              		.size	out7seg, .-out7seg
 223              		.section	.text.main,"ax",%progbits
 224              		.align	2
 225              		.global	main
 226              		.code	16
 227              		.thumb_func
ARM GAS  C:\Users\JANUSD~1\AppData\Local\Temp\ccEwIFdT.s 			page 7


 228              		.type	main, %function
 229              	main:
 230              	.LFB37:
  27:main.c        ****     char str[STR_LEN];
 231              		.loc 1 27 0
 232              		.cfi_startproc
 233              		@ args = 0, pretend = 0, frame = 0
 234              		@ frame_needed = 0, uses_anonymous_args = 0
 235 0000 F8B5     		push	{r3, r4, r5, r6, r7, lr}
 236              		.cfi_def_cfa_offset 24
 237              		.cfi_offset 3, -24
 238              		.cfi_offset 4, -20
 239              		.cfi_offset 5, -16
 240              		.cfi_offset 6, -12
 241              		.cfi_offset 7, -8
 242              		.cfi_offset 14, -4
  35:main.c        **** 
 243              		.loc 1 35 0
 244              		.syntax divided
 245              	@ 35 "main.c" 1
 246 0002 62B6     		CPSIE   i
 247              	@ 0 "" 2
  37:main.c        ****     isr_100Hz_StartEx(isr_100Hz);
 248              		.loc 1 37 0
 249              		.thumb
 250              		.syntax unified
 251 0004 FFF7FEFF 		bl	SPIM_Start
 252              	.LVL21:
  38:main.c        ****     
 253              		.loc 1 38 0
 254 0008 1F48     		ldr	r0, .L17
 255 000a FFF7FEFF 		bl	isr_100Hz_StartEx
 256              	.LVL22:
  40:main.c        ****     UART_Start();
 257              		.loc 1 40 0
 258 000e FFF7FEFF 		bl	ADC_SAR_Seq_Start
 259              	.LVL23:
  41:main.c        ****     UART_UartPutString("Init stage is done \r\n");
 260              		.loc 1 41 0
 261 0012 FFF7FEFF 		bl	UART_Start
 262              	.LVL24:
  42:main.c        **** 
 263              		.loc 1 42 0
 264 0016 1D48     		ldr	r0, .L17+4
 265 0018 FFF7FEFF 		bl	UART_UartPutString
 266              	.LVL25:
  44:main.c        ****     ADC_SAR_Seq_StartConvert();
 267              		.loc 1 44 0
 268 001c 1C48     		ldr	r0, .L17+8
 269 001e FFF7FEFF 		bl	UART_UartPutString
 270              	.LVL26:
  45:main.c        ****     
 271              		.loc 1 45 0
 272 0022 FFF7FEFF 		bl	ADC_SAR_Seq_StartConvert
 273              	.LVL27:
 274              	.L16:
  49:main.c        ****         ADC_SAR_Seq_IsEndConversion(ADC_SAR_Seq_WAIT_FOR_RESULT);
ARM GAS  C:\Users\JANUSD~1\AppData\Local\Temp\ccEwIFdT.s 			page 8


 275              		.loc 1 49 0 discriminator 1
 276 0026 FA25     		movs	r5, #250
 277 0028 AD00     		lsls	r5, r5, #2
 278 002a 2800     		movs	r0, r5
 279 002c FFF7FEFF 		bl	CyDelay
 280              	.LVL28:
  50:main.c        ****         
 281              		.loc 1 50 0 discriminator 1
 282 0030 0220     		movs	r0, #2
 283 0032 FFF7FEFF 		bl	ADC_SAR_Seq_IsEndConversion
 284              	.LVL29:
  52:main.c        ****         adcResult_V = ADC_SAR_Seq_CountsTo_Volts(CHANNEL_0, adcResult);
 285              		.loc 1 52 0 discriminator 1
 286 0036 0020     		movs	r0, #0
 287 0038 FFF7FEFF 		bl	ADC_SAR_Seq_GetResult16
 288              	.LVL30:
 289 003c 0400     		movs	r4, r0
 290 003e 87B2     		uxth	r7, r0
 291              	.LVL31:
  53:main.c        ****         adcResult_mV = ADC_SAR_Seq_CountsTo_mVolts(CHANNEL_0, adcResult);
 292              		.loc 1 53 0 discriminator 1
 293 0040 0100     		movs	r1, r0
 294 0042 0020     		movs	r0, #0
 295 0044 FFF7FEFF 		bl	ADC_SAR_Seq_CountsTo_Volts
 296              	.LVL32:
  54:main.c        ****         adcResult_uV = ADC_SAR_Seq_CountsTo_uVolts(CHANNEL_0, adcResult);
 297              		.loc 1 54 0 discriminator 1
 298 0048 2100     		movs	r1, r4
 299 004a 0020     		movs	r0, #0
 300 004c FFF7FEFF 		bl	ADC_SAR_Seq_CountsTo_mVolts
 301              	.LVL33:
 302 0050 0600     		movs	r6, r0
 303              	.LVL34:
  55:main.c        ****         
 304              		.loc 1 55 0 discriminator 1
 305 0052 2100     		movs	r1, r4
 306 0054 0020     		movs	r0, #0
 307 0056 FFF7FEFF 		bl	ADC_SAR_Seq_CountsTo_uVolts
 308              	.LVL35:
  57:main.c        ****         out7seg(temperature);
 309              		.loc 1 57 0 discriminator 1
 310 005a 0A21     		movs	r1, #10
 311 005c 3000     		movs	r0, r6
 312 005e FFF7FEFF 		bl	__aeabi_idiv
 313              	.LVL36:
 314 0062 84B2     		uxth	r4, r0
 315 0064 0B4E     		ldr	r6, .L17+12
 316              	.LVL37:
 317 0066 3480     		strh	r4, [r6]
  58:main.c        ****         
 318              		.loc 1 58 0 discriminator 1
 319 0068 2000     		movs	r0, r4
 320 006a FFF7FEFF 		bl	out7seg
 321              	.LVL38:
  60:main.c        ****         my_adcResult_mV = My_CountsTo_mVolts(CHANNEL_0, adcResult);
 322              		.loc 1 60 0 discriminator 1
 323 006e 2800     		movs	r0, r5
ARM GAS  C:\Users\JANUSD~1\AppData\Local\Temp\ccEwIFdT.s 			page 9


 324 0070 FFF7FEFF 		bl	CyDelay
 325              	.LVL39:
  61:main.c        ****         temperature = adcResult_mV / 10; // 10 mV per C
 326              		.loc 1 61 0 discriminator 1
 327 0074 3900     		movs	r1, r7
 328 0076 0020     		movs	r0, #0
 329 0078 FFF7FEFF 		bl	My_CountsTo_mVolts
 330              	.LVL40:
  62:main.c        ****         out7seg(temperature);
 331              		.loc 1 62 0 discriminator 1
 332 007c 3480     		strh	r4, [r6]
  63:main.c        ****         
 333              		.loc 1 63 0 discriminator 1
 334 007e 2000     		movs	r0, r4
 335 0080 FFF7FEFF 		bl	out7seg
 336              	.LVL41:
 337 0084 CFE7     		b	.L16
 338              	.L18:
 339 0086 C046     		.align	2
 340              	.L17:
 341 0088 00000000 		.word	isr_100Hz
 342 008c 00000000 		.word	.LC7
 343 0090 18000000 		.word	.LC9
 344 0094 00000000 		.word	temperature
 345              		.cfi_endproc
 346              	.LFE37:
 347              		.size	main, .-main
 348              		.comm	temperature,2,2
 349              		.global	KOD7
 350              		.global	indyk
 351              		.section	.rodata
 352              		.align	2
 353              		.set	.LANCHOR2,. + 0
 354              		.type	KOD7, %object
 355              		.size	KOD7, 10
 356              	KOD7:
 357 0000 03       		.byte	3
 358 0001 9F       		.byte	-97
 359 0002 25       		.byte	37
 360 0003 0D       		.byte	13
 361 0004 99       		.byte	-103
 362 0005 49       		.byte	73
 363 0006 41       		.byte	65
 364 0007 1F       		.byte	31
 365 0008 01       		.byte	1
 366 0009 09       		.byte	9
 367              		.data
 368              		.align	2
 369              		.set	.LANCHOR0,. + 0
 370              		.type	indyk, %object
 371              		.size	indyk, 8
 372              	indyk:
 373 0000 FF10     		.short	4351
 374 0002 FF20     		.short	8447
 375 0004 FF40     		.short	16639
 376 0006 FF80     		.short	-32513
 377              		.section	.rodata.str1.4,"aMS",%progbits,1
ARM GAS  C:\Users\JANUSD~1\AppData\Local\Temp\ccEwIFdT.s 			page 10


 378              		.align	2
 379              	.LC7:
 380 0000 496E6974 		.ascii	"Init stage is done \015\012\000"
 380      20737461 
 380      67652069 
 380      7320646F 
 380      6E65200D 
 381 0016 0000     		.space	2
 382              	.LC9:
 383 0018 53746172 		.ascii	"Starting ADC (FreeRunning mode only) \015\012\000"
 383      74696E67 
 383      20414443 
 383      20284672 
 383      65655275 
 384              		.bss
 385              		.set	.LANCHOR1,. + 0
 386              		.type	N_indyk.6665, %object
 387              		.size	N_indyk.6665, 1
 388              	N_indyk.6665:
 389 0000 00       		.space	1
 390              		.text
 391              	.Letext0:
 392              		.file 2 "c:\\program files (x86)\\cypress\\psoc creator\\4.2\\psoc creator\\import\\gnu\\arm\\5.4.
 393              		.file 3 "c:\\program files (x86)\\cypress\\psoc creator\\4.2\\psoc creator\\import\\gnu\\arm\\5.4.
 394              		.file 4 "Generated_Source\\PSoC4/cytypes.h"
 395              		.file 5 "Generated_Source\\PSoC4/ADC_SAR_Seq.h"
 396              		.file 6 "Generated_Source\\PSoC4/SPIM.h"
 397              		.file 7 "Generated_Source\\PSoC4/isr_100Hz.h"
 398              		.file 8 "Generated_Source\\PSoC4/UART.h"
 399              		.file 9 "Generated_Source\\PSoC4/UART_SPI_UART.h"
 400              		.file 10 "Generated_Source\\PSoC4/CyLib.h"